; Function Attrs: uwtable
define hidden void @_ZTvn48_n80_NK5osgeo4proj9operation26InverseCoordinateOperation19_exportToPROJStringEPNS0_2io19PROJStringFormatterE(ptr noundef readonly captures(none) %0, ptr noundef nonnull %1) unnamed_addr #26 align 2 {
  %3 = getelementptr inbounds i8, ptr %0, i64 -48
  %4 = load ptr, ptr %3, align 8, !tbaa !3
  %5 = getelementptr inbounds i8, ptr %4, i64 -80
  %6 = load i64, ptr %5, align 8
  %7 = getelementptr inbounds i8, ptr %3, i64 %6
  tail call void @_ZN5osgeo4proj2io19PROJStringFormatter14startInversionEv(ptr noundef nonnull align 8 dereferenceable(8) %1)
  %8 = getelementptr inbounds nuw i8, ptr %7, i64 8
  %9 = load ptr, ptr %8, align 8, !tbaa !65
  %10 = getelementptr inbounds nuw i8, ptr %9, i64 48
  %11 = load ptr, ptr %10, align 8, !tbaa !3
  %12 = getelementptr inbounds nuw i8, ptr %11, i64 16
  %13 = load ptr, ptr %12, align 8
  tail call void %13(ptr noundef nonnull align 8 dereferenceable(8) %10, ptr noundef nonnull %1)
  tail call void @_ZN5osgeo4proj2io19PROJStringFormatter13stopInversionEv(ptr noundef nonnull align 8 dereferenceable(8) %1)
  ret void
}